target datalayout = "e-m:e-p270:32:32-p271:32:32-p272:64:64-i64:64-i128:128-f80:128-n8:16:32:64-S128"
target triple = "x86_64-pc-linux-gnu"

%struct.regex_t = type { i32, i64, ptr, ptr }
%struct.WHLST = type { %struct.regex_t, ptr }

@wfrom = dso_local global ptr null, align 8
@wto = dso_local global ptr null, align 8
@.str = private unnamed_addr constant [2 x i8] c"r\00", align 1
@.str.1 = private unnamed_addr constant [34 x i8] c"Cannot open allow list file '%s'\0A\00", align 1
@.str.2 = private unnamed_addr constant [6 x i8] c"From:\00", align 1
@.str.3 = private unnamed_addr constant [4 x i8] c"To:\00", align 1
@.str.4 = private unnamed_addr constant [39 x i8] c"Out of memory loading allow list file\0A\00", align 1
@.str.5 = private unnamed_addr constant [49 x i8] c"Failed to compile regex '%s' in allow list file\0A\00", align 1

; Function Attrs: nounwind uwtable
define dso_local void @allow_list_free() #0 {
  %1 = alloca ptr, align 8
  br label %2

2:                                                ; preds = %5, %0
  %3 = load ptr, ptr @wfrom, align 8
  %4 = icmp ne ptr %3, null
  br i1 %4, label %5, label %13

5:                                                ; preds = %2
  %6 = load ptr, ptr @wfrom, align 8
  %7 = getelementptr inbounds %struct.WHLST, ptr %6, i32 0, i32 1
  %8 = load ptr, ptr %7, align 8
  store ptr %8, ptr %1, align 8
  %9 = load ptr, ptr @wfrom, align 8
  %10 = getelementptr inbounds %struct.WHLST, ptr %9, i32 0, i32 0
  call void @cli_regfree(ptr noundef %10)
  %11 = load ptr, ptr @wfrom, align 8
  call void @free(ptr noundef %11) #6
  %12 = load ptr, ptr %1, align 8
  store ptr %12, ptr @wfrom, align 8
  br label %2

13:                                               ; preds = %2
  br label %14

14:                                               ; preds = %17, %13
  %15 = load ptr, ptr @wto, align 8
  %16 = icmp ne ptr %15, null
  br i1 %16, label %17, label %25

17:                                               ; preds = %14
  %18 = load ptr, ptr @wto, align 8
  %19 = getelementptr inbounds %struct.WHLST, ptr %18, i32 0, i32 1
  %20 = load ptr, ptr %19, align 8
  store ptr %20, ptr %1, align 8
  %21 = load ptr, ptr @wto, align 8
  %22 = getelementptr inbounds %struct.WHLST, ptr %21, i32 0, i32 0
  call void @cli_regfree(ptr noundef %22)
  %23 = load ptr, ptr @wto, align 8
  call void @free(ptr noundef %23) #6
  %24 = load ptr, ptr %1, align 8
  store ptr %24, ptr @wto, align 8
  br label %14

25:                                               ; preds = %14
  ret void
}

; Function Attrs: nounwind uwtable
define dso_local i32 @allow_list_init(ptr noundef %0) #0 {
  %2 = alloca i32, align 4
  %3 = alloca ptr, align 8
  %4 = alloca [2048 x i8], align 16
  %5 = alloca ptr, align 8
  %6 = alloca ptr, align 8
  %7 = alloca ptr, align 8
  %8 = alloca ptr, align 8
  %9 = alloca i32, align 4
  store ptr %0, ptr %3, align 8
  %10 = load ptr, ptr %3, align 8
  %11 = call noalias ptr @fopen(ptr noundef %10, ptr noundef @.str)
  store ptr %11, ptr %5, align 8
  %12 = icmp ne ptr %11, null
  br i1 %12, label %16, label %13

13:                                               ; preds = %1
  %14 = load ptr, ptr %3, align 8
  %15 = call i32 (i32, ptr, ...) @logg(i32 noundef 5, ptr noundef @.str.1, ptr noundef %14)
  store i32 1, ptr %2, align 4
  br label %119

16:                                               ; preds = %1
  br label %17

17:                                               ; preds = %115, %90, %38, %16
  %18 = getelementptr inbounds [2048 x i8], ptr %4, i64 0, i64 0
  %19 = load ptr, ptr %5, align 8
  %20 = call ptr @fgets(ptr noundef %18, i32 noundef 2048, ptr noundef %19)
  %21 = icmp ne ptr %20, null
  br i1 %21, label %22, label %116

22:                                               ; preds = %17
  store ptr @wto, ptr %7, align 8
  %23 = getelementptr inbounds [2048 x i8], ptr %4, i64 0, i64 0
  store ptr %23, ptr %8, align 8
  %24 = getelementptr inbounds [2048 x i8], ptr %4, i64 0, i64 0
  %25 = load i8, ptr %24, align 16
  %26 = sext i8 %25 to i32
  %27 = icmp eq i32 %26, 35
  br i1 %27, label %38, label %28

28:                                               ; preds = %22
  %29 = getelementptr inbounds [2048 x i8], ptr %4, i64 0, i64 0
  %30 = load i8, ptr %29, align 16
  %31 = sext i8 %30 to i32
  %32 = icmp eq i32 %31, 58
  br i1 %32, label %38, label %33

33:                                               ; preds = %28
  %34 = getelementptr inbounds [2048 x i8], ptr %4, i64 0, i64 0
  %35 = load i8, ptr %34, align 16
  %36 = sext i8 %35 to i32
  %37 = icmp eq i32 %36, 33
  br i1 %37, label %38, label %39

38:                                               ; preds = %33, %28, %22
  br label %17

39:                                               ; preds = %33
  %40 = getelementptr inbounds [2048 x i8], ptr %4, i64 0, i64 0
  %41 = call i32 @strncasecmp(ptr noundef @.str.2, ptr noundef %40, i64 noundef 5) #7
  %42 = icmp ne i32 %41, 0
  br i1 %42, label %46, label %43

43:                                               ; preds = %39
  %44 = load ptr, ptr %8, align 8
  %45 = getelementptr inbounds i8, ptr %44, i64 5
  store ptr %45, ptr %8, align 8
  store ptr @wfrom, ptr %7, align 8
  br label %54

46:                                               ; preds = %39
  %47 = getelementptr inbounds [2048 x i8], ptr %4, i64 0, i64 0
  %48 = call i32 @strncasecmp(ptr noundef @.str.3, ptr noundef %47, i64 noundef 3) #7
  %49 = icmp ne i32 %48, 0
  br i1 %49, label %53, label %50

50:                                               ; preds = %46
  %51 = load ptr, ptr %8, align 8
  %52 = getelementptr inbounds i8, ptr %51, i64 3
  store ptr %52, ptr %8, align 8
  br label %53

53:                                               ; preds = %50, %46
  br label %54

54:                                               ; preds = %53, %43
  %55 = load ptr, ptr %8, align 8
  %56 = call i64 @strlen(ptr noundef %55) #7
  %57 = sub i64 %56, 1
  %58 = trunc i64 %57 to i32
  store i32 %58, ptr %9, align 4
  br label %59

59:                                               ; preds = %84, %54
  %60 = load i32, ptr %9, align 4
  %61 = icmp sge i32 %60, 0
  br i1 %61, label %62, label %87

62:                                               ; preds = %59
  %63 = load ptr, ptr %8, align 8
  %64 = load i32, ptr %9, align 4
  %65 = sext i32 %64 to i64
  %66 = getelementptr inbounds i8, ptr %63, i64 %65
  %67 = load i8, ptr %66, align 1
  %68 = sext i8 %67 to i32
  %69 = icmp ne i32 %68, 10
  br i1 %69, label %70, label %79

70:                                               ; preds = %62
  %71 = load ptr, ptr %8, align 8
  %72 = load i32, ptr %9, align 4
  %73 = sext i32 %72 to i64
  %74 = getelementptr inbounds i8, ptr %71, i64 %73
  %75 = load i8, ptr %74, align 1
  %76 = sext i8 %75 to i32
  %77 = icmp ne i32 %76, 13
  br i1 %77, label %78, label %79

78:                                               ; preds = %70
  br label %87

79:                                               ; preds = %70, %62
  %80 = load ptr, ptr %8, align 8
  %81 = load i32, ptr %9, align 4
  %82 = sext i32 %81 to i64
  %83 = getelementptr inbounds i8, ptr %80, i64 %82
  store i8 0, ptr %83, align 1
  br label %84

84:                                               ; preds = %79
  %85 = load i32, ptr %9, align 4
  %86 = add nsw i32 %85, -1
  store i32 %86, ptr %9, align 4
  br label %59

87:                                               ; preds = %78, %59
  %88 = load i32, ptr %9, align 4
  %89 = icmp ne i32 %88, 0
  br i1 %89, label %91, label %90

90:                                               ; preds = %87
  br label %17

91:                                               ; preds = %87
  %92 = call noalias ptr @malloc(i64 noundef 40) #8
  store ptr %92, ptr %6, align 8
  %93 = icmp ne ptr %92, null
  br i1 %93, label %98, label %94

94:                                               ; preds = %91
  %95 = call i32 (i32, ptr, ...) @logg(i32 noundef 5, ptr noundef @.str.4)
  call void @allow_list_free()
  %96 = load ptr, ptr %5, align 8
  %97 = call i32 @fclose(ptr noundef %96)
  store i32 1, ptr %2, align 4
  br label %119

98:                                               ; preds = %91
  %99 = load ptr, ptr %7, align 8
  %100 = load ptr, ptr %99, align 8
  %101 = load ptr, ptr %6, align 8
  %102 = getelementptr inbounds %struct.WHLST, ptr %101, i32 0, i32 1
  store ptr %100, ptr %102, align 8
  %103 = load ptr, ptr %6, align 8
  %104 = load ptr, ptr %7, align 8
  store ptr %103, ptr %104, align 8
  %105 = load ptr, ptr %6, align 8
  %106 = getelementptr inbounds %struct.WHLST, ptr %105, i32 0, i32 0
  %107 = load ptr, ptr %8, align 8
  %108 = call i32 @cli_regcomp(ptr noundef %106, ptr noundef %107, i32 noundef 6)
  %109 = icmp ne i32 %108, 0
  br i1 %109, label %110, label %115

110:                                              ; preds = %98
  %111 = load ptr, ptr %8, align 8
  %112 = call i32 (i32, ptr, ...) @logg(i32 noundef 5, ptr noundef @.str.5, ptr noundef %111)
  call void @allow_list_free()
  %113 = load ptr, ptr %5, align 8
  %114 = call i32 @fclose(ptr noundef %113)
  store i32 1, ptr %2, align 4
  br label %119

115:                                              ; preds = %98
  br label %17

116:                                              ; preds = %17
  %117 = load ptr, ptr %5, align 8
  %118 = call i32 @fclose(ptr noundef %117)
  store i32 0, ptr %2, align 4
  br label %119

119:                                              ; preds = %116, %110, %94, %13
  %120 = load i32, ptr %2, align 4
  ret i32 %120
}