; Function Attrs: nounwind uwtable
define dso_local noundef i32 @allow_list_init(ptr noundef %0) local_unnamed_addr #0 {
  %2 = alloca [2048 x i8], align 16
  %3 = tail call noalias ptr @fopen(ptr noundef %0, ptr noundef nonnull @.str)
  %.not = icmp eq ptr %3, null
  br i1 %.not, label %6, label %.preheader

.preheader:                                       ; preds = %1
  %4 = call ptr @fgets(ptr noundef nonnull %2, i32 noundef 2048, ptr noundef nonnull %3)
  %.not3760 = icmp eq ptr %4, null
  br i1 %.not3760, label %._crit_edge, label %.lr.ph61

.lr.ph61:                                         ; preds = %.preheader
  %5 = getelementptr inbounds i8, ptr %2, i64 5
  br label %8

6:                                                ; preds = %1
  %7 = tail call i32 (i32, ptr, ...) @logg(i32 noundef 5, ptr noundef nonnull @.str.1, ptr noundef %0) #8
  br label %54

8:                                                ; preds = %.lr.ph61, %.backedge
  %9 = load i8, ptr %2, align 16
  switch i8 %9, label %10 [
    i8 58, label %.backedge
    i8 35, label %.backedge
    i8 33, label %.backedge
  ]

10:                                               ; preds = %8
  %11 = call i32 @strncasecmp(ptr noundef nonnull @.str.2, ptr noundef nonnull %2, i64 noundef 5) #9
  %.not38 = icmp eq i32 %11, 0
  br i1 %.not38, label %14, label %12

12:                                               ; preds = %10
  %13 = call i32 @strncasecmp(ptr noundef nonnull @.str.3, ptr noundef nonnull %2, i64 noundef 3) #9
  %.not39 = icmp eq i32 %13, 0
  %spec.select.idx.sroa.sel.idx.sroa.sel.idx = select i1 %.not39, i64 3, i64 0
  %spec.select.idx.sroa.sel.idx.sroa.sel = getelementptr inbounds i8, ptr %2, i64 %spec.select.idx.sroa.sel.idx.sroa.sel.idx
  br label %14

14:                                               ; preds = %10, %12
  %.033 = phi ptr [ @wto, %12 ], [ @wfrom, %10 ]
  %.032 = phi ptr [ %spec.select.idx.sroa.sel.idx.sroa.sel, %12 ], [ %5, %10 ]
  %15 = call i64 @strlen(ptr noundef nonnull dereferenceable(1) %.032) #9
  %16 = trunc i64 %15 to i32
  %.058 = add i32 %16, -1
  %17 = icmp sgt i32 %.058, -1
  br i1 %17, label %.lr.ph.preheader, label %.thread

.lr.ph.preheader:                                 ; preds = %14
  %18 = zext nneg i32 %.058 to i64
  br label %.lr.ph

.lr.ph:                                           ; preds = %.lr.ph.preheader, %21
  %indvars.iv = phi i64 [ %18, %.lr.ph.preheader ], [ %indvars.iv.next, %21 ]
  %19 = getelementptr inbounds i8, ptr %.032, i64 %indvars.iv
  %20 = load i8, ptr %19, align 1
  switch i8 %20, label %23 [
    i8 10, label %21
    i8 13, label %21
  ]

21:                                               ; preds = %.lr.ph, %.lr.ph
  store i8 0, ptr %19, align 1
  %indvars.iv.next = add nsw i64 %indvars.iv, -1
  %22 = icmp sgt i64 %indvars.iv, 0
  br i1 %22, label %.lr.ph, label %.thread

23:                                               ; preds = %.lr.ph
  %24 = and i64 %indvars.iv, 4294967295
  %.not42 = icmp eq i64 %24, 0
  br i1 %.not42, label %.backedge, label %.thread

.backedge:                                        ; preds = %23, %38, %8, %8, %8
  %25 = call ptr @fgets(ptr noundef nonnull %2, i32 noundef 2048, ptr noundef nonnull %3)
  %.not37 = icmp eq ptr %25, null
  br i1 %.not37, label %._crit_edge, label %8

.thread:                                          ; preds = %21, %14, %23
  %26 = call noalias dereferenceable_or_null(40) ptr @malloc(i64 noundef 40) #10
  %.not43 = icmp eq ptr %26, null
  br i1 %.not43, label %27, label %38

27:                                               ; preds = %.thread
  %28 = call i32 (i32, ptr, ...) @logg(i32 noundef 5, ptr noundef nonnull @.str.4) #8
  %.pr.i = load ptr, ptr @wfrom, align 8
  %.not5.i = icmp eq ptr %.pr.i, null
  br i1 %.not5.i, label %thread-pre-split.i, label %.lr.ph.i

.lr.ph.i:                                         ; preds = %27, %.lr.ph.i
  %29 = phi ptr [ %31, %.lr.ph.i ], [ %.pr.i, %27 ]
  %30 = getelementptr inbounds i8, ptr %29, i64 32
  %31 = load ptr, ptr %30, align 8
  call void @cli_regfree(ptr noundef nonnull %29) #8
  %32 = load ptr, ptr @wfrom, align 8
  call void @free(ptr noundef %32) #8
  store ptr %31, ptr @wfrom, align 8
  %.not.i = icmp eq ptr %31, null
  br i1 %.not.i, label %thread-pre-split.i, label %.lr.ph.i

thread-pre-split.i:                               ; preds = %.lr.ph.i, %27
  %.pr4.i = load ptr, ptr @wto, align 8
  %.not36.i = icmp eq ptr %.pr4.i, null
  br i1 %.not36.i, label %allow_list_free.exit, label %.lr.ph7.i

.lr.ph7.i:                                        ; preds = %thread-pre-split.i, %.lr.ph7.i
  %33 = phi ptr [ %35, %.lr.ph7.i ], [ %.pr4.i, %thread-pre-split.i ]
  %34 = getelementptr inbounds i8, ptr %33, i64 32
  %35 = load ptr, ptr %34, align 8
  call void @cli_regfree(ptr noundef nonnull %33) #8
  %36 = load ptr, ptr @wto, align 8
  call void @free(ptr noundef %36) #8
  store ptr %35, ptr @wto, align 8
  %.not3.i = icmp eq ptr %35, null
  br i1 %.not3.i, label %allow_list_free.exit, label %.lr.ph7.i

allow_list_free.exit:                             ; preds = %.lr.ph7.i, %thread-pre-split.i
  %37 = call i32 @fclose(ptr noundef nonnull %3)
  br label %54

38:                                               ; preds = %.thread
  %39 = load ptr, ptr %.033, align 8
  %40 = getelementptr inbounds i8, ptr %26, i64 32
  store ptr %39, ptr %40, align 8
  store ptr %26, ptr %.033, align 8
  %41 = call i32 @cli_regcomp(ptr noundef nonnull %26, ptr noundef nonnull %.032, i32 noundef 6) #8
  %.not44 = icmp eq i32 %41, 0
  br i1 %.not44, label %.backedge, label %42

42:                                               ; preds = %38
  %43 = call i32 (i32, ptr, ...) @logg(i32 noundef 5, ptr noundef nonnull @.str.5, ptr noundef nonnull %.032) #8
  %.pr.i45 = load ptr, ptr @wfrom, align 8
  %.not5.i46 = icmp eq ptr %.pr.i45, null
  br i1 %.not5.i46, label %thread-pre-split.i49, label %.lr.ph.i47

.lr.ph.i47:                                       ; preds = %42, %.lr.ph.i47
  %44 = phi ptr [ %46, %.lr.ph.i47 ], [ %.pr.i45, %42 ]
  %45 = getelementptr inbounds i8, ptr %44, i64 32
  %46 = load ptr, ptr %45, align 8
  call void @cli_regfree(ptr noundef nonnull %44) #8
  %47 = load ptr, ptr @wfrom, align 8
  call void @free(ptr noundef %47) #8
  store ptr %46, ptr @wfrom, align 8
  %.not.i48 = icmp eq ptr %46, null
  br i1 %.not.i48, label %thread-pre-split.i49, label %.lr.ph.i47

thread-pre-split.i49:                             ; preds = %.lr.ph.i47, %42
  %.pr4.i50 = load ptr, ptr @wto, align 8
  %.not36.i51 = icmp eq ptr %.pr4.i50, null
  br i1 %.not36.i51, label %allow_list_free.exit54, label %.lr.ph7.i52

.lr.ph7.i52:                                      ; preds = %thread-pre-split.i49, %.lr.ph7.i52
  %48 = phi ptr [ %50, %.lr.ph7.i52 ], [ %.pr4.i50, %thread-pre-split.i49 ]
  %49 = getelementptr inbounds i8, ptr %48, i64 32
  %50 = load ptr, ptr %49, align 8
  call void @cli_regfree(ptr noundef nonnull %48) #8
  %51 = load ptr, ptr @wto, align 8
  call void @free(ptr noundef %51) #8
  store ptr %50, ptr @wto, align 8
  %.not3.i53 = icmp eq ptr %50, null
  br i1 %.not3.i53, label %allow_list_free.exit54, label %.lr.ph7.i52

allow_list_free.exit54:                           ; preds = %.lr.ph7.i52, %thread-pre-split.i49
  %52 = call i32 @fclose(ptr noundef nonnull %3)
  br label %54

._crit_edge:                                      ; preds = %.backedge, %.preheader
  %53 = call i32 @fclose(ptr noundef nonnull %3)
  br label %54

54:                                               ; preds = %._crit_edge, %allow_list_free.exit54, %allow_list_free.exit, %6
  %.034 = phi i32 [ 1, %allow_list_free.exit54 ], [ 1, %allow_list_free.exit ], [ 0, %._crit_edge ], [ 1, %6 ]
  ret i32 %.034
}